target datalayout = "e-m:e-p270:32:32-p271:32:32-p272:64:64-i64:64-i128:128-f80:128-n8:16:32:64-S128"
target triple = "x86_64-pc-linux-gnu"

%struct.node_record = type { ptr, ptr, i16, i64, i64, ptr, ptr, ptr, i16, ptr, i16, i16, i32, i32, i64, ptr, i16, i16, ptr, ptr, ptr, ptr, ptr, i64, i64, ptr, ptr, ptr, ptr, i32, ptr, ptr, i64, i64, i32, ptr, i64, ptr, i32, i16, ptr, ptr, i32, ptr, i32, i8, ptr, i32, i16, i16, ptr, i16, i64, i16, i64, ptr, i64, i32, i16, i64, i16, ptr, i16, i64, ptr, i64, i16, i32, i16, ptr, ptr, ptr, i16, i32, i16, i16, i32, ptr, i16, i32 }

@avail_node_bitmap = dso_local global ptr null, align 8
@bf_ignore_node_bitmap = dso_local global ptr null, align 8
@idle_node_bitmap = dso_local global ptr null, align 8
@share_node_bitmap = dso_local global ptr null, align 8
@up_node_bitmap = dso_local global ptr null, align 8

; Function Attrs: nounwind uwtable
define dso_local void @make_node_avail(ptr noundef %0) #0 {
  %2 = alloca ptr, align 8
  store ptr %0, ptr %2, align 8
  %3 = load ptr, ptr %2, align 8
  %4 = getelementptr inbounds nuw %struct.node_record, ptr %3, i32 0, i32 44
  %5 = load i32, ptr %4, align 8
  %6 = zext i32 %5 to i64
  %7 = and i64 %6, 8388608
  %8 = icmp ne i64 %7, 0
  br i1 %8, label %16, label %9

9:                                                ; preds = %1
  %10 = load ptr, ptr %2, align 8
  %11 = getelementptr inbounds nuw %struct.node_record, ptr %10, i32 0, i32 44
  %12 = load i32, ptr %11, align 8
  %13 = zext i32 %12 to i64
  %14 = and i64 %13, 262144
  %15 = icmp ne i64 %14, 0
  br i1 %15, label %16, label %17

16:                                               ; preds = %9, %1
  br label %28

17:                                               ; preds = %9
  %18 = load ptr, ptr @avail_node_bitmap, align 8
  %19 = load ptr, ptr %2, align 8
  %20 = getelementptr inbounds nuw %struct.node_record, ptr %19, i32 0, i32 29
  %21 = load i32, ptr %20, align 8
  %22 = zext i32 %21 to i64
  call void @bit_set(ptr noundef %18, i64 noundef %22)
  %23 = load ptr, ptr @bf_ignore_node_bitmap, align 8
  %24 = load ptr, ptr %2, align 8
  %25 = getelementptr inbounds nuw %struct.node_record, ptr %24, i32 0, i32 29
  %26 = load i32, ptr %25, align 8
  %27 = zext i32 %26 to i64
  call void @bit_set(ptr noundef %23, i64 noundef %27)
  br label %28

28:                                               ; preds = %17, %16
  ret void
}

; Function Attrs: nounwind uwtable
define internal void @_sync_bitmaps(ptr noundef %0, i32 noundef %1) #0 {
  %3 = alloca ptr, align 8
  %4 = alloca i32, align 4
  store ptr %0, ptr %3, align 8
  store i32 %1, ptr %4, align 4
  %5 = load i32, ptr %4, align 4
  %6 = icmp eq i32 %5, 0
  br i1 %6, label %7, label %18

7:                                                ; preds = %2
  %8 = load ptr, ptr @idle_node_bitmap, align 8
  %9 = load ptr, ptr %3, align 8
  %10 = getelementptr inbounds nuw %struct.node_record, ptr %9, i32 0, i32 29
  %11 = load i32, ptr %10, align 8
  %12 = zext i32 %11 to i64
  call void @bit_set(ptr noundef %8, i64 noundef %12)
  %13 = load ptr, ptr @share_node_bitmap, align 8
  %14 = load ptr, ptr %3, align 8
  %15 = getelementptr inbounds nuw %struct.node_record, ptr %14, i32 0, i32 29
  %16 = load i32, ptr %15, align 8
  %17 = zext i32 %16 to i64
  call void @bit_set(ptr noundef %13, i64 noundef %17)
  br label %18

18:                                               ; preds = %7, %2
  %19 = load ptr, ptr %3, align 8
  %20 = getelementptr inbounds nuw %struct.node_record, ptr %19, i32 0, i32 44
  %21 = load i32, ptr %20, align 8
  %22 = and i32 %21, 15
  %23 = icmp eq i32 %22, 1
  br i1 %23, label %45, label %24

24:                                               ; preds = %18
  %25 = load ptr, ptr %3, align 8
  %26 = getelementptr inbounds nuw %struct.node_record, ptr %25, i32 0, i32 44
  %27 = load i32, ptr %26, align 8
  %28 = zext i32 %27 to i64
  %29 = and i64 %28, 512
  %30 = icmp ne i64 %29, 0
  br i1 %30, label %45, label %31

31:                                               ; preds = %24
  %32 = load ptr, ptr %3, align 8
  %33 = getelementptr inbounds nuw %struct.node_record, ptr %32, i32 0, i32 44
  %34 = load i32, ptr %33, align 8
  %35 = zext i32 %34 to i64
  %36 = and i64 %35, 8192
  %37 = icmp ne i64 %36, 0
  br i1 %37, label %45, label %38

38:                                               ; preds = %31
  %39 = load ptr, ptr %3, align 8
  %40 = getelementptr inbounds nuw %struct.node_record, ptr %39, i32 0, i32 44
  %41 = load i32, ptr %40, align 8
  %42 = zext i32 %41 to i64
  %43 = and i64 %42, 2048
  %44 = icmp ne i64 %43, 0
  br i1 %44, label %45, label %51

45:                                               ; preds = %38, %31, %24, %18
  %46 = load ptr, ptr @avail_node_bitmap, align 8
  %47 = load ptr, ptr %3, align 8
  %48 = getelementptr inbounds nuw %struct.node_record, ptr %47, i32 0, i32 29
  %49 = load i32, ptr %48, align 8
  %50 = zext i32 %49 to i64
  call void @bit_clear(ptr noundef %46, i64 noundef %50)
  br label %53

51:                                               ; preds = %38
  %52 = load ptr, ptr %3, align 8
  call void @make_node_avail(ptr noundef %52)
  br label %53

53:                                               ; preds = %51, %45
  %54 = load ptr, ptr %3, align 8
  %55 = getelementptr inbounds nuw %struct.node_record, ptr %54, i32 0, i32 44
  %56 = load i32, ptr %55, align 8
  %57 = and i32 %56, 15
  %58 = icmp eq i32 %57, 1
  br i1 %58, label %59, label %65

59:                                               ; preds = %53
  %60 = load ptr, ptr @up_node_bitmap, align 8
  %61 = load ptr, ptr %3, align 8
  %62 = getelementptr inbounds nuw %struct.node_record, ptr %61, i32 0, i32 29
  %63 = load i32, ptr %62, align 8
  %64 = zext i32 %63 to i64
  call void @bit_clear(ptr noundef %60, i64 noundef %64)
  br label %71

65:                                               ; preds = %53
  %66 = load ptr, ptr @up_node_bitmap, align 8
  %67 = load ptr, ptr %3, align 8
  %68 = getelementptr inbounds nuw %struct.node_record, ptr %67, i32 0, i32 29
  %69 = load i32, ptr %68, align 8
  %70 = zext i32 %69 to i64
  call void @bit_set(ptr noundef %66, i64 noundef %70)
  br label %71

71:                                               ; preds = %65, %59
  ret void
}