; Function Attrs: nounwind uwtable
define internal fastcc void @_sync_bitmaps(ptr noundef readonly captures(none) %0, i32 noundef %1) unnamed_addr #0 {
  %3 = icmp eq i32 %1, 0
  br i1 %3, label %4, label %12

4:                                                ; preds = %2
  %5 = load ptr, ptr @idle_node_bitmap, align 8
  %6 = getelementptr inbounds nuw i8, ptr %0, i64 208
  %7 = load i32, ptr %6, align 8
  %8 = zext i32 %7 to i64
  tail call void @bit_set(ptr noundef %5, i64 noundef %8) #15
  %9 = load ptr, ptr @share_node_bitmap, align 8
  %10 = load i32, ptr %6, align 8
  %11 = zext i32 %10 to i64
  tail call void @bit_set(ptr noundef %9, i64 noundef %11) #15
  br label %12

12:                                               ; preds = %4, %2
  %13 = getelementptr inbounds nuw i8, ptr %0, i64 320
  %14 = load i32, ptr %13, align 8
  %15 = and i32 %14, 15
  %16 = icmp ne i32 %15, 1
  %17 = and i32 %14, 10752
  %or.cond13 = icmp eq i32 %17, 0
  %or.cond = and i1 %16, %or.cond13
  br i1 %or.cond, label %23, label %18

18:                                               ; preds = %12
  %19 = load ptr, ptr @avail_node_bitmap, align 8
  %20 = getelementptr inbounds nuw i8, ptr %0, i64 208
  %21 = load i32, ptr %20, align 8
  %22 = zext i32 %21 to i64
  tail call void @bit_clear(ptr noundef %19, i64 noundef %22) #15
  br label %make_node_avail.exit

23:                                               ; preds = %12
  %24 = and i32 %14, 8650752
  %or.cond.i = icmp eq i32 %24, 0
  br i1 %or.cond.i, label %25, label %make_node_avail.exit

25:                                               ; preds = %23
  %26 = load ptr, ptr @avail_node_bitmap, align 8
  %27 = getelementptr inbounds nuw i8, ptr %0, i64 208
  %28 = load i32, ptr %27, align 8
  %29 = zext i32 %28 to i64
  tail call void @bit_set(ptr noundef %26, i64 noundef %29) #15
  %30 = load ptr, ptr @bf_ignore_node_bitmap, align 8
  %31 = load i32, ptr %27, align 8
  %32 = zext i32 %31 to i64
  tail call void @bit_set(ptr noundef %30, i64 noundef %32) #15
  br label %make_node_avail.exit

make_node_avail.exit:                             ; preds = %25, %23, %18
  %33 = load i32, ptr %13, align 8
  %34 = and i32 %33, 15
  %35 = icmp eq i32 %34, 1
  %36 = load ptr, ptr @up_node_bitmap, align 8
  %37 = getelementptr inbounds nuw i8, ptr %0, i64 208
  %38 = load i32, ptr %37, align 8
  %39 = zext i32 %38 to i64
  br i1 %35, label %40, label %41

40:                                               ; preds = %make_node_avail.exit
  tail call void @bit_clear(ptr noundef %36, i64 noundef %39) #15
  br label %42

41:                                               ; preds = %make_node_avail.exit
  tail call void @bit_set(ptr noundef %36, i64 noundef %39) #15
  br label %42

42:                                               ; preds = %41, %40
  ret void
}